target datalayout = "e-m:e-p270:32:32-p271:32:32-p272:64:64-i64:64-i128:128-f80:128-n8:16:32:64-S128"
target triple = "x86_64-pc-linux-gnu"

%struct.backup_manifest_info = type { ptr, i32, ptr, i64, i8, i8, i8 }
%struct.ForEachState = type { ptr, i32 }
%struct.List = type { i32, i32, i32, ptr, [0 x %union.ListCell] }
%union.ListCell = type { ptr }
%struct.TimeLineHistoryEntry = type { i32, i64, i64 }

@.str.1 = private unnamed_addr constant [18 x i8] c"backup_manifest.c\00", align 1
@.str.5 = private unnamed_addr constant [3 x i8] c",\0A\00", align 1
@.str.16 = private unnamed_addr constant [5 x i8] c"\0A],\0A\00", align 1
@.str.17 = private unnamed_addr constant [17 x i8] c"\22WAL-Ranges\22: [\0A\00", align 1
@.str.18 = private unnamed_addr constant [47 x i8] c"expected end timeline %u but found timeline %u\00", align 1
@__func__.AddWALInfoToBackupManifest = private unnamed_addr constant [27 x i8] c"AddWALInfoToBackupManifest\00", align 1
@.str.19 = private unnamed_addr constant [49 x i8] c"expected start timeline %u but found timeline %u\00", align 1
@.str.20 = private unnamed_addr constant [63 x i8] c"%s{ \22Timeline\22: %u, \22Start-LSN\22: \22%X/%X\22, \22End-LSN\22: \22%X/%X\22 }\00", align 1
@.str.21 = private unnamed_addr constant [1 x i8] zeroinitializer, align 1
@.str.22 = private unnamed_addr constant [54 x i8] c"start timeline %u not found in history of timeline %u\00", align 1

; Function Attrs: inlinehint nounwind uwtable
define internal zeroext i1 @IsManifestEnabled(ptr noundef %0) #5 {
  %2 = alloca ptr, align 8
  store ptr %0, ptr %2, align 8
  %3 = load ptr, ptr %2, align 8
  %4 = getelementptr inbounds nuw %struct.backup_manifest_info, ptr %3, i32 0, i32 0
  %5 = load ptr, ptr %4, align 8
  %6 = icmp ne ptr %5, null
  ret i1 %6
}

; Function Attrs: nounwind uwtable
define dso_local void @AddWALInfoToBackupManifest(ptr noundef %0, i64 noundef %1, i32 noundef %2, i64 noundef %3, i32 noundef %4) #0 {
  %6 = alloca ptr, align 8
  %7 = alloca i64, align 8
  %8 = alloca i32, align 4
  %9 = alloca i64, align 8
  %10 = alloca i32, align 4
  %11 = alloca ptr, align 8
  %12 = alloca ptr, align 8
  %13 = alloca i8, align 1
  %14 = alloca i8, align 1
  %15 = alloca i32, align 4
  %16 = alloca %struct.ForEachState, align 8
  %17 = alloca ptr, align 8
  %18 = alloca i64, align 8
  %19 = alloca ptr, align 8
  %20 = alloca i32, align 4
  %21 = alloca i32, align 4
  store ptr %0, ptr %6, align 8
  store i64 %1, ptr %7, align 8
  store i32 %2, ptr %8, align 4
  store i64 %3, ptr %9, align 8
  store i32 %4, ptr %10, align 4
  call void @llvm.lifetime.start.p0(i64 8, ptr %11) #8
  call void @llvm.lifetime.start.p0(i64 8, ptr %12) #8
  call void @llvm.lifetime.start.p0(i64 1, ptr %13) #8
  store i8 1, ptr %13, align 1
  call void @llvm.lifetime.start.p0(i64 1, ptr %14) #8
  store i8 0, ptr %14, align 1
  %22 = load ptr, ptr %6, align 8
  %23 = call zeroext i1 @IsManifestEnabled(ptr noundef %22)
  br i1 %23, label %25, label %24

24:                                               ; preds = %5
  store i32 1, ptr %15, align 4
  br label %193

25:                                               ; preds = %5
  %26 = load ptr, ptr %6, align 8
  call void @AppendStringToManifest(ptr noundef %26, ptr noundef @.str.16)
  %27 = load i32, ptr %10, align 4
  %28 = call ptr @readTimeLineHistory(i32 noundef %27)
  store ptr %28, ptr %11, align 8
  %29 = load ptr, ptr %6, align 8
  call void @AppendStringToManifest(ptr noundef %29, ptr noundef @.str.17)
  call void @llvm.lifetime.start.p0(i64 16, ptr %16) #8
  %30 = getelementptr inbounds nuw %struct.ForEachState, ptr %16, i32 0, i32 0
  %31 = load ptr, ptr %11, align 8
  store ptr %31, ptr %30, align 8
  %32 = getelementptr inbounds nuw %struct.ForEachState, ptr %16, i32 0, i32 1
  store i32 0, ptr %32, align 8
  %33 = getelementptr i8, ptr %16, i64 12
  call void @llvm.memset.p0.i64(ptr align 4 %33, i8 0, i64 4, i1 false)
  br label %34

34:                                               ; preds = %170, %25
  %35 = getelementptr inbounds nuw %struct.ForEachState, ptr %16, i32 0, i32 0
  %36 = load ptr, ptr %35, align 8
  %37 = icmp ne ptr %36, null
  br i1 %37, label %38, label %55

38:                                               ; preds = %34
  %39 = getelementptr inbounds nuw %struct.ForEachState, ptr %16, i32 0, i32 1
  %40 = load i32, ptr %39, align 8
  %41 = getelementptr inbounds nuw %struct.ForEachState, ptr %16, i32 0, i32 0
  %42 = load ptr, ptr %41, align 8
  %43 = getelementptr inbounds nuw %struct.List, ptr %42, i32 0, i32 1
  %44 = load i32, ptr %43, align 4
  %45 = icmp slt i32 %40, %44
  br i1 %45, label %46, label %55

46:                                               ; preds = %38
  %47 = getelementptr inbounds nuw %struct.ForEachState, ptr %16, i32 0, i32 0
  %48 = load ptr, ptr %47, align 8
  %49 = getelementptr inbounds nuw %struct.List, ptr %48, i32 0, i32 3
  %50 = load ptr, ptr %49, align 8
  %51 = getelementptr inbounds nuw %struct.ForEachState, ptr %16, i32 0, i32 1
  %52 = load i32, ptr %51, align 8
  %53 = sext i32 %52 to i64
  %54 = getelementptr inbounds %union.ListCell, ptr %50, i64 %53
  store ptr %54, ptr %12, align 8
  br label %56

55:                                               ; preds = %38, %34
  store ptr null, ptr %12, align 8
  br label %56

56:                                               ; preds = %55, %46
  %57 = phi i32 [ 1, %46 ], [ 0, %55 ]
  %58 = icmp ne i32 %57, 0
  br i1 %58, label %60, label %59

59:                                               ; preds = %56
  store i32 2, ptr %15, align 4
  br label %174

60:                                               ; preds = %56
  call void @llvm.lifetime.start.p0(i64 8, ptr %17) #8
  %61 = load ptr, ptr %12, align 8
  %62 = load ptr, ptr %61, align 8
  store ptr %62, ptr %17, align 8
  call void @llvm.lifetime.start.p0(i64 8, ptr %18) #8
  %63 = load ptr, ptr %17, align 8
  %64 = getelementptr inbounds nuw %struct.TimeLineHistoryEntry, ptr %63, i32 0, i32 2
  %65 = load i64, ptr %64, align 8
  %66 = icmp eq i64 %65, 0
  br i1 %66, label %74, label %67

67:                                               ; preds = %60
  %68 = load ptr, ptr %17, align 8
  %69 = getelementptr inbounds nuw %struct.TimeLineHistoryEntry, ptr %68, i32 0, i32 2
  %70 = load i64, ptr %69, align 8
  %71 = load i64, ptr %7, align 8
  %72 = icmp ult i64 %70, %71
  br i1 %72, label %73, label %74

73:                                               ; preds = %67
  store i32 4, ptr %15, align 4
  br label %167

74:                                               ; preds = %67, %60
  %75 = load i8, ptr %13, align 1, !range !4, !noundef !5
  %76 = trunc i8 %75 to i1
  br i1 %76, label %77, label %98

77:                                               ; preds = %74
  %78 = load i32, ptr %10, align 4
  %79 = load ptr, ptr %17, align 8
  %80 = getelementptr inbounds nuw %struct.TimeLineHistoryEntry, ptr %79, i32 0, i32 0
  %81 = load i32, ptr %80, align 8
  %82 = icmp ne i32 %78, %81
  br i1 %82, label %83, label %98

83:                                               ; preds = %77
  br label %84

84:                                               ; preds = %83
  br i1 true, label %85, label %87

85:                                               ; preds = %84
  %86 = call zeroext i1 @errstart_cold(i32 noundef 21, ptr noundef null) #7
  br i1 %86, label %89, label %95

87:                                               ; preds = %84
  %88 = call zeroext i1 @errstart(i32 noundef 21, ptr noundef null)
  br i1 %88, label %89, label %95

89:                                               ; preds = %87, %85
  %90 = load i32, ptr %8, align 4
  %91 = load ptr, ptr %17, align 8
  %92 = getelementptr inbounds nuw %struct.TimeLineHistoryEntry, ptr %91, i32 0, i32 0
  %93 = load i32, ptr %92, align 8
  %94 = call i32 (ptr, ...) @errmsg(ptr noundef @.str.18, i32 noundef %90, i32 noundef %93)
  call void @errfinish(ptr noundef @.str.1, i32 noundef 256, ptr noundef @__func__.AddWALInfoToBackupManifest)
  br label %95

95:                                               ; preds = %89, %87, %85
  unreachable

96:                                               ; No predecessors!
  br label %97

97:                                               ; preds = %96
  br label %98

98:                                               ; preds = %97, %77, %74
  %99 = load i32, ptr %8, align 4
  %100 = load ptr, ptr %17, align 8
  %101 = getelementptr inbounds nuw %struct.TimeLineHistoryEntry, ptr %100, i32 0, i32 0
  %102 = load i32, ptr %101, align 8
  %103 = icmp eq i32 %99, %102
  br i1 %103, label %104, label %106

104:                                              ; preds = %98
  %105 = load i64, ptr %7, align 8
  store i64 %105, ptr %18, align 8
  br label %130

106:                                              ; preds = %98
  %107 = load ptr, ptr %17, align 8
  %108 = getelementptr inbounds nuw %struct.TimeLineHistoryEntry, ptr %107, i32 0, i32 1
  %109 = load i64, ptr %108, align 8
  store i64 %109, ptr %18, align 8
  %110 = load ptr, ptr %17, align 8
  %111 = getelementptr inbounds nuw %struct.TimeLineHistoryEntry, ptr %110, i32 0, i32 1
  %112 = load i64, ptr %111, align 8
  %113 = icmp eq i64 %112, 0
  br i1 %113, label %114, label %129

114:                                              ; preds = %106
  br label %115

115:                                              ; preds = %114
  br i1 true, label %116, label %118

116:                                              ; preds = %115
  %117 = call zeroext i1 @errstart_cold(i32 noundef 21, ptr noundef null) #7
  br i1 %117, label %120, label %126

118:                                              ; preds = %115
  %119 = call zeroext i1 @errstart(i32 noundef 21, ptr noundef null)
  br i1 %119, label %120, label %126

120:                                              ; preds = %118, %116
  %121 = load i32, ptr %8, align 4
  %122 = load ptr, ptr %17, align 8
  %123 = getelementptr inbounds nuw %struct.TimeLineHistoryEntry, ptr %122, i32 0, i32 0
  %124 = load i32, ptr %123, align 8
  %125 = call i32 (ptr, ...) @errmsg(ptr noundef @.str.19, i32 noundef %121, i32 noundef %124)
  call void @errfinish(ptr noundef @.str.1, i32 noundef 280, ptr noundef @__func__.AddWALInfoToBackupManifest)
  br label %126

126:                                              ; preds = %120, %118, %116
  unreachable

127:                                              ; No predecessors!
  br label %128

128:                                              ; preds = %127
  br label %129

129:                                              ; preds = %128, %106
  br label %130

130:                                              ; preds = %129, %104
  call void @llvm.lifetime.start.p0(i64 8, ptr %19) #8
  %131 = load i8, ptr %13, align 1, !range !4, !noundef !5
  %132 = trunc i8 %131 to i1
  %133 = select i1 %132, ptr @.str.21, ptr @.str.5
  %134 = load ptr, ptr %17, align 8
  %135 = getelementptr inbounds nuw %struct.TimeLineHistoryEntry, ptr %134, i32 0, i32 0
  %136 = load i32, ptr %135, align 8
  br label %137

137:                                              ; preds = %130
  br label %138

138:                                              ; preds = %137
  br label %139

139:                                              ; preds = %138
  store i32 1, ptr %20, align 4
  %140 = load i64, ptr %18, align 8
  %141 = lshr i64 %140, 32
  %142 = trunc i64 %141 to i32
  %143 = load i64, ptr %18, align 8
  %144 = trunc i64 %143 to i32
  br label %145

145:                                              ; preds = %139
  br label %146

146:                                              ; preds = %145
  br label %147

147:                                              ; preds = %146
  store i32 1, ptr %21, align 4
  %148 = load i64, ptr %9, align 8
  %149 = lshr i64 %148, 32
  %150 = trunc i64 %149 to i32
  %151 = load i64, ptr %9, align 8
  %152 = trunc i64 %151 to i32
  %153 = call ptr (ptr, ...) @psprintf(ptr noundef @.str.20, ptr noundef %133, i32 noundef %136, i32 noundef %142, i32 noundef %144, i32 noundef %150, i32 noundef %152)
  store ptr %153, ptr %19, align 8
  %154 = load ptr, ptr %6, align 8
  %155 = load ptr, ptr %19, align 8
  call void @AppendStringToManifest(ptr noundef %154, ptr noundef %155)
  %156 = load ptr, ptr %19, align 8
  call void @pfree(ptr noundef %156)
  call void @llvm.lifetime.end.p0(i64 8, ptr %19) #8
  %157 = load i32, ptr %8, align 4
  %158 = load ptr, ptr %17, align 8
  %159 = getelementptr inbounds nuw %struct.TimeLineHistoryEntry, ptr %158, i32 0, i32 0
  %160 = load i32, ptr %159, align 8
  %161 = icmp eq i32 %157, %160
  br i1 %161, label %162, label %163

162:                                              ; preds = %147
  store i8 1, ptr %14, align 1
  store i32 2, ptr %15, align 4
  br label %167

163:                                              ; preds = %147
  %164 = load ptr, ptr %17, align 8
  %165 = getelementptr inbounds nuw %struct.TimeLineHistoryEntry, ptr %164, i32 0, i32 1
  %166 = load i64, ptr %165, align 8
  store i64 %166, ptr %9, align 8
  store i8 0, ptr %13, align 1
  store i32 0, ptr %15, align 4
  br label %167

167:                                              ; preds = %163, %162, %73
  call void @llvm.lifetime.end.p0(i64 8, ptr %18) #8
  call void @llvm.lifetime.end.p0(i64 8, ptr %17) #8
  %168 = load i32, ptr %15, align 4
  switch i32 %168, label %174 [
    i32 0, label %169
    i32 4, label %170
  ]

169:                                              ; preds = %167
  br label %170

170:                                              ; preds = %169, %167
  %171 = getelementptr inbounds nuw %struct.ForEachState, ptr %16, i32 0, i32 1
  %172 = load i32, ptr %171, align 8
  %173 = add i32 %172, 1
  store i32 %173, ptr %171, align 8
  br label %34, !llvm.loop !6

174:                                              ; preds = %167, %59
  call void @llvm.lifetime.end.p0(i64 16, ptr %16) #8
  br label %175

175:                                              ; preds = %174
  %176 = load i8, ptr %14, align 1, !range !4, !noundef !5
  %177 = trunc i8 %176 to i1
  br i1 %177, label %191, label %178

178:                                              ; preds = %175
  br label %179

179:                                              ; preds = %178
  br i1 true, label %180, label %182

180:                                              ; preds = %179
  %181 = call zeroext i1 @errstart_cold(i32 noundef 21, ptr noundef null) #7
  br i1 %181, label %184, label %188

182:                                              ; preds = %179
  %183 = call zeroext i1 @errstart(i32 noundef 21, ptr noundef null)
  br i1 %183, label %184, label %188

184:                                              ; preds = %182, %180
  %185 = load i32, ptr %8, align 4
  %186 = load i32, ptr %10, align 4
  %187 = call i32 (ptr, ...) @errmsg(ptr noundef @.str.22, i32 noundef %185, i32 noundef %186)
  call void @errfinish(ptr noundef @.str.1, i32 noundef 307, ptr noundef @__func__.AddWALInfoToBackupManifest)
  br label %188

188:                                              ; preds = %184, %182, %180
  unreachable

189:                                              ; No predecessors!
  br label %190

190:                                              ; preds = %189
  br label %191

191:                                              ; preds = %190, %175
  %192 = load ptr, ptr %6, align 8
  call void @AppendStringToManifest(ptr noundef %192, ptr noundef @.str.16)
  store i32 0, ptr %15, align 4
  br label %193

193:                                              ; preds = %191, %24
  call void @llvm.lifetime.end.p0(i64 1, ptr %14) #8
  call void @llvm.lifetime.end.p0(i64 1, ptr %13) #8
  call void @llvm.lifetime.end.p0(i64 8, ptr %12) #8
  call void @llvm.lifetime.end.p0(i64 8, ptr %11) #8
  %194 = load i32, ptr %15, align 4
  switch i32 %194, label %196 [
    i32 0, label %195
    i32 1, label %195
  ]

195:                                              ; preds = %193, %193
  ret void

196:                                              ; preds = %193
  unreachable
}